target datalayout = "e-m:e-p270:32:32-p271:32:32-p272:64:64-i64:64-i128:128-f80:128-n8:16:32:64-S128"
target triple = "x86_64-pc-linux-gnu"

%struct.Hacl_Hash_SHA3_hash_buf_s = type { i8, ptr }
%struct.Hacl_Hash_SHA3_state_t_s = type { %struct.Hacl_Hash_SHA3_hash_buf_s, ptr, i64 }

@.str.1 = private unnamed_addr constant [42 x i8] c"../cpython/Modules/_hacl/Hacl_Hash_SHA3.c\00", align 1
@stderr = external global ptr, align 8
@.str.2 = private unnamed_addr constant [35 x i8] c"KaRaMeL incomplete match at %s:%d\0A\00", align 1

; Function Attrs: nounwind uwtable
define internal i32 @hash_len(i8 noundef zeroext %0) #0 {
  %2 = alloca i32, align 4
  %3 = alloca i8, align 1
  store i8 %0, ptr %3, align 1, !tbaa !3
  %4 = load i8, ptr %3, align 1, !tbaa !3
  %5 = zext i8 %4 to i32
  switch i32 %5, label %10 [
    i32 9, label %6
    i32 8, label %7
    i32 10, label %8
    i32 11, label %9
  ]

6:                                                ; preds = %1
  store i32 28, ptr %2, align 4
  br label %13

7:                                                ; preds = %1
  store i32 32, ptr %2, align 4
  br label %13

8:                                                ; preds = %1
  store i32 48, ptr %2, align 4
  br label %13

9:                                                ; preds = %1
  store i32 64, ptr %2, align 4
  br label %13

10:                                               ; preds = %1
  %11 = load ptr, ptr @stderr, align 8, !tbaa !15
  %12 = call i32 (ptr, ptr, ...) @fprintf(ptr noundef %11, ptr noundef @.str.2, ptr noundef @.str.1, i32 noundef 231) #10
  call void @exit(i32 noundef 253) #11
  unreachable

13:                                               ; preds = %9, %8, %7, %6
  %14 = load i32, ptr %2, align 4
  ret i32 %14
}

; Function Attrs: nounwind uwtable
define hidden zeroext i8 @python_hashlib_Hacl_Hash_SHA3_get_alg(ptr noundef %0) #0 {
  %2 = alloca ptr, align 8
  %3 = alloca %struct.Hacl_Hash_SHA3_hash_buf_s, align 8
  store ptr %0, ptr %2, align 8, !tbaa !28
  call void @llvm.lifetime.start.p0(i64 16, ptr %3) #10
  %4 = load ptr, ptr %2, align 8, !tbaa !28
  %5 = getelementptr inbounds nuw %struct.Hacl_Hash_SHA3_state_t_s, ptr %4, i32 0, i32 0
  call void @llvm.memcpy.p0.p0.i64(ptr align 8 %3, ptr align 8 %5, i64 16, i1 false), !tbaa.struct !30
  %6 = getelementptr inbounds nuw %struct.Hacl_Hash_SHA3_hash_buf_s, ptr %3, i32 0, i32 0
  %7 = load i8, ptr %6, align 8, !tbaa !31
  call void @llvm.lifetime.end.p0(i64 16, ptr %3) #10
  ret i8 %7
}

; Function Attrs: nounwind uwtable
define hidden i32 @python_hashlib_Hacl_Hash_SHA3_hash_len(ptr noundef %0) #0 {
  %2 = alloca ptr, align 8
  %3 = alloca i8, align 1
  store ptr %0, ptr %2, align 8, !tbaa !28
  call void @llvm.lifetime.start.p0(i64 1, ptr %3) #10
  %4 = load ptr, ptr %2, align 8, !tbaa !28
  %5 = call zeroext i8 @python_hashlib_Hacl_Hash_SHA3_get_alg(ptr noundef %4)
  store i8 %5, ptr %3, align 1, !tbaa !3
  %6 = load i8, ptr %3, align 1, !tbaa !3
  %7 = call i32 @hash_len(i8 noundef zeroext %6)
  call void @llvm.lifetime.end.p0(i64 1, ptr %3) #10
  ret i32 %7
}