; Function Attrs: nofree nounwind uwtable
define hidden range(i32 28, 65) i32 @python_hashlib_Hacl_Hash_SHA3_hash_len(ptr noundef readonly captures(none) %0) local_unnamed_addr #0 {
  %.sroa.0.0.copyload.i = load i8, ptr %0, align 8, !tbaa !18
  %switch.tableidx = add i8 %.sroa.0.0.copyload.i, -8
  %2 = icmp ult i8 %switch.tableidx, 4
  br i1 %2, label %switch.lookup, label %3

3:                                                ; preds = %1
  %4 = load ptr, ptr @stderr, align 8, !tbaa !3
  %5 = tail call i32 (ptr, ptr, ...) @fprintf(ptr noundef %4, ptr noundef nonnull @.str.2, ptr noundef nonnull @.str.1, i32 noundef 231) #17
  tail call void @exit(i32 noundef 253) #18
  unreachable

switch.lookup:                                    ; preds = %1
  %6 = zext nneg i8 %switch.tableidx to i64
  %switch.gep = getelementptr inbounds nuw [4 x i32], ptr @switch.table.python_hashlib_Hacl_Hash_SHA3_hash_len, i64 0, i64 %6
  %switch.load = load i32, ptr %switch.gep, align 4
  ret i32 %switch.load
}